target datalayout = "e-m:e-p270:32:32-p271:32:32-p272:64:64-i64:64-i128:128-f80:128-n8:16:32:64-S128"
target triple = "x86_64-pc-linux-gnu"

%"class.std::__shared_count" = type { ptr }
%"class.std::__cxx11::basic_string" = type { %"struct.std::__cxx11::basic_string<char>::_Alloc_hider", i64, %union.anon }
%"struct.std::__cxx11::basic_string<char>::_Alloc_hider" = type { ptr }
%union.anon = type { i64, [8 x i8] }
%"class.duckdb_apache::thrift::TBase" = type { ptr }
%"class.duckdb::optional_idx" = type { i64 }
%"class.duckdb::ParquetReader" = type { ptr, ptr, %"class.std::__cxx11::basic_string", %"class.duckdb::vector.4", %"class.duckdb::shared_ptr.10", %"struct.duckdb::ParquetOptions", %"struct.duckdb::MultiFileReaderData", %"class.duckdb::unique_ptr", %"class.duckdb::shared_ptr.85", %"class.duckdb::vector.89", %"class.duckdb::unique_ptr.95" }
%"class.duckdb::vector.4" = type { %"class.std::vector.5" }
%"class.std::vector.5" = type { %"struct.std::_Vector_base.6" }
%"struct.std::_Vector_base.6" = type { %"struct.std::_Vector_base<duckdb::MultiFileReaderColumnDefinition, std::allocator<duckdb::MultiFileReaderColumnDefinition>>::_Vector_impl" }
%"struct.std::_Vector_base<duckdb::MultiFileReaderColumnDefinition, std::allocator<duckdb::MultiFileReaderColumnDefinition>>::_Vector_impl" = type { %"struct.std::_Vector_base<duckdb::MultiFileReaderColumnDefinition, std::allocator<duckdb::MultiFileReaderColumnDefinition>>::_Vector_impl_data" }
%"struct.std::_Vector_base<duckdb::MultiFileReaderColumnDefinition, std::allocator<duckdb::MultiFileReaderColumnDefinition>>::_Vector_impl_data" = type { ptr, ptr, ptr }
%"class.duckdb::shared_ptr.10" = type { %"class.std::shared_ptr.11" }
%"class.std::shared_ptr.11" = type { %"class.std::__shared_ptr.12" }
%"class.std::__shared_ptr.12" = type { ptr, %"class.std::__shared_count" }
%"struct.duckdb::ParquetOptions" = type { i8, i8, %"class.duckdb::shared_ptr.14", i8, %"struct.duckdb::MultiFileReaderOptions", %"class.duckdb::vector.37", i64 }
%"class.duckdb::shared_ptr.14" = type { %"class.std::shared_ptr.15" }
%"class.std::shared_ptr.15" = type { %"class.std::__shared_ptr.16" }
%"class.std::__shared_ptr.16" = type { ptr, %"class.std::__shared_count" }
%"struct.duckdb::MultiFileReaderOptions" = type { i8, i8, i8, i8, i8, i8, %"class.std::unordered_map", %"class.std::__cxx11::basic_string", %"class.std::unordered_map.23" }
%"class.std::unordered_map" = type { %"class.std::_Hashtable" }
%"class.std::_Hashtable" = type { ptr, i64, %"struct.std::__detail::_Hash_node_base", i64, %"struct.std::__detail::_Prime_rehash_policy", ptr }
%"struct.std::__detail::_Hash_node_base" = type { ptr }
%"struct.std::__detail::_Prime_rehash_policy" = type { float, i64 }
%"class.std::unordered_map.23" = type { %"class.std::_Hashtable.24" }
%"class.std::_Hashtable.24" = type { ptr, i64, %"struct.std::__detail::_Hash_node_base", i64, %"struct.std::__detail::_Prime_rehash_policy", ptr }
%"class.duckdb::vector.37" = type { %"class.std::vector.38" }
%"class.std::vector.38" = type { %"struct.std::_Vector_base.39" }
%"struct.std::_Vector_base.39" = type { %"struct.std::_Vector_base<duckdb::ParquetColumnDefinition, std::allocator<duckdb::ParquetColumnDefinition>>::_Vector_impl" }
%"struct.std::_Vector_base<duckdb::ParquetColumnDefinition, std::allocator<duckdb::ParquetColumnDefinition>>::_Vector_impl" = type { %"struct.std::_Vector_base<duckdb::ParquetColumnDefinition, std::allocator<duckdb::ParquetColumnDefinition>>::_Vector_impl_data" }
%"struct.std::_Vector_base<duckdb::ParquetColumnDefinition, std::allocator<duckdb::ParquetColumnDefinition>>::_Vector_impl_data" = type { ptr, ptr, ptr }
%"struct.duckdb::MultiFileReaderData" = type { %"class.duckdb::vector.43", %"class.duckdb::vector.49", %"class.duckdb::vector.43", i8, %"class.duckdb::vector.55", %"class.duckdb::optional_ptr", %"class.duckdb::vector.61", %"class.std::unordered_map.67", %"class.duckdb::optional_idx" }
%"class.duckdb::vector.49" = type { %"class.std::vector.50" }
%"class.std::vector.50" = type { %"struct.std::_Vector_base.51" }
%"struct.std::_Vector_base.51" = type { %"struct.std::_Vector_base<duckdb::ColumnIndex, std::allocator<duckdb::ColumnIndex>>::_Vector_impl" }
%"struct.std::_Vector_base<duckdb::ColumnIndex, std::allocator<duckdb::ColumnIndex>>::_Vector_impl" = type { %"struct.std::_Vector_base<duckdb::ColumnIndex, std::allocator<duckdb::ColumnIndex>>::_Vector_impl_data" }
%"struct.std::_Vector_base<duckdb::ColumnIndex, std::allocator<duckdb::ColumnIndex>>::_Vector_impl_data" = type { ptr, ptr, ptr }
%"class.duckdb::vector.43" = type { %"class.std::vector.44" }
%"class.std::vector.44" = type { %"struct.std::_Vector_base.45" }
%"struct.std::_Vector_base.45" = type { %"struct.std::_Vector_base<unsigned long, std::allocator<unsigned long>>::_Vector_impl" }
%"struct.std::_Vector_base<unsigned long, std::allocator<unsigned long>>::_Vector_impl" = type { %"struct.std::_Vector_base<unsigned long, std::allocator<unsigned long>>::_Vector_impl_data" }
%"struct.std::_Vector_base<unsigned long, std::allocator<unsigned long>>::_Vector_impl_data" = type { ptr, ptr, ptr }
%"class.duckdb::vector.55" = type { %"class.std::vector.56" }
%"class.std::vector.56" = type { %"struct.std::_Vector_base.57" }
%"struct.std::_Vector_base.57" = type { %"struct.std::_Vector_base<duckdb::MultiFileFilterEntry, std::allocator<duckdb::MultiFileFilterEntry>>::_Vector_impl" }
%"struct.std::_Vector_base<duckdb::MultiFileFilterEntry, std::allocator<duckdb::MultiFileFilterEntry>>::_Vector_impl" = type { %"struct.std::_Vector_base<duckdb::MultiFileFilterEntry, std::allocator<duckdb::MultiFileFilterEntry>>::_Vector_impl_data" }
%"struct.std::_Vector_base<duckdb::MultiFileFilterEntry, std::allocator<duckdb::MultiFileFilterEntry>>::_Vector_impl_data" = type { ptr, ptr, ptr }
%"class.duckdb::optional_ptr" = type { ptr }
%"class.duckdb::vector.61" = type { %"class.std::vector.62" }
%"class.std::vector.62" = type { %"struct.std::_Vector_base.63" }
%"struct.std::_Vector_base.63" = type { %"struct.std::_Vector_base<duckdb::MultiFileConstantEntry, std::allocator<duckdb::MultiFileConstantEntry>>::_Vector_impl" }
%"struct.std::_Vector_base<duckdb::MultiFileConstantEntry, std::allocator<duckdb::MultiFileConstantEntry>>::_Vector_impl" = type { %"struct.std::_Vector_base<duckdb::MultiFileConstantEntry, std::allocator<duckdb::MultiFileConstantEntry>>::_Vector_impl_data" }
%"struct.std::_Vector_base<duckdb::MultiFileConstantEntry, std::allocator<duckdb::MultiFileConstantEntry>>::_Vector_impl_data" = type { ptr, ptr, ptr }
%"class.std::unordered_map.67" = type { %"class.std::_Hashtable.68" }
%"class.std::_Hashtable.68" = type { ptr, i64, %"struct.std::__detail::_Hash_node_base", i64, %"struct.std::__detail::_Prime_rehash_policy", ptr }
%"class.duckdb::unique_ptr" = type { %"class.std::unique_ptr" }
%"class.std::unique_ptr" = type { %"struct.std::__uniq_ptr_data" }
%"struct.std::__uniq_ptr_data" = type { %"class.std::__uniq_ptr_impl" }
%"class.std::__uniq_ptr_impl" = type { %"class.std::tuple" }
%"class.std::tuple" = type { %"struct.std::_Tuple_impl" }
%"struct.std::_Tuple_impl" = type { %"struct.std::_Head_base.84" }
%"struct.std::_Head_base.84" = type { ptr }
%"class.duckdb::shared_ptr.85" = type { %"class.std::shared_ptr.86" }
%"class.std::shared_ptr.86" = type { %"class.std::__shared_ptr.87" }
%"class.std::__shared_ptr.87" = type { ptr, %"class.std::__shared_count" }
%"class.duckdb::vector.89" = type { %"class.std::vector.90" }
%"class.std::vector.90" = type { %"struct.std::_Vector_base.91" }
%"struct.std::_Vector_base.91" = type { %"struct.std::_Vector_base<std::__cxx11::basic_string<char>, std::allocator<std::__cxx11::basic_string<char>>>::_Vector_impl" }
%"struct.std::_Vector_base<std::__cxx11::basic_string<char>, std::allocator<std::__cxx11::basic_string<char>>>::_Vector_impl" = type { %"struct.std::_Vector_base<std::__cxx11::basic_string<char>, std::allocator<std::__cxx11::basic_string<char>>>::_Vector_impl_data" }
%"struct.std::_Vector_base<std::__cxx11::basic_string<char>, std::allocator<std::__cxx11::basic_string<char>>>::_Vector_impl_data" = type { ptr, ptr, ptr }
%"class.duckdb::unique_ptr.95" = type { %"class.std::unique_ptr.96" }
%"class.std::unique_ptr.96" = type { %"struct.std::__uniq_ptr_data.97" }
%"struct.std::__uniq_ptr_data.97" = type { %"class.std::__uniq_ptr_impl.98" }
%"class.std::__uniq_ptr_impl.98" = type { %"class.std::tuple.99" }
%"class.std::tuple.99" = type { %"struct.std::_Tuple_impl.100" }
%"struct.std::_Tuple_impl.100" = type { %"struct.std::_Head_base.103" }
%"struct.std::_Head_base.103" = type { ptr }
%"class.duckdb::ParquetFileMetadataCache" = type { %"class.duckdb::ObjectCacheEntry", %"class.duckdb::unique_ptr.113", i64, %"class.duckdb::unique_ptr.122" }
%"class.duckdb::ObjectCacheEntry" = type { ptr }
%"class.duckdb::unique_ptr.113" = type { %"class.std::unique_ptr.114" }
%"class.std::unique_ptr.114" = type { %"struct.std::__uniq_ptr_data.115" }
%"struct.std::__uniq_ptr_data.115" = type { %"class.std::__uniq_ptr_impl.116" }
%"class.std::__uniq_ptr_impl.116" = type { %"class.std::tuple.117" }
%"class.std::tuple.117" = type { %"struct.std::_Tuple_impl.118" }
%"struct.std::_Tuple_impl.118" = type { %"struct.std::_Head_base.121" }
%"struct.std::_Head_base.121" = type { ptr }
%"class.duckdb::unique_ptr.122" = type { %"class.std::unique_ptr.123" }
%"class.std::unique_ptr.123" = type { %"struct.std::__uniq_ptr_data.124" }
%"struct.std::__uniq_ptr_data.124" = type { %"class.std::__uniq_ptr_impl.125" }
%"class.std::__uniq_ptr_impl.125" = type { %"class.std::tuple.126" }
%"class.std::tuple.126" = type { %"struct.std::_Tuple_impl.127" }
%"struct.std::_Tuple_impl.127" = type { %"struct.std::_Head_base.130" }
%"struct.std::_Head_base.130" = type { ptr }
%"class.duckdb_parquet::FileMetaData" = type <{ %"class.duckdb_apache::thrift::TBase", i32, [4 x i8], %"class.duckdb::vector.341", i64, %"class.duckdb::vector.347", %"class.duckdb::vector.353", %"class.std::__cxx11::basic_string", %"class.duckdb::vector.359", %"class.duckdb_parquet::EncryptionAlgorithm", %"class.std::__cxx11::basic_string", %"struct.duckdb_parquet::_FileMetaData__isset", [7 x i8] }>
%"class.duckdb::vector.341" = type { %"class.std::vector.342" }
%"class.std::vector.342" = type { %"struct.std::_Vector_base.343" }
%"struct.std::_Vector_base.343" = type { %"struct.std::_Vector_base<duckdb_parquet::SchemaElement, std::allocator<duckdb_parquet::SchemaElement>>::_Vector_impl" }
%"struct.std::_Vector_base<duckdb_parquet::SchemaElement, std::allocator<duckdb_parquet::SchemaElement>>::_Vector_impl" = type { %"struct.std::_Vector_base<duckdb_parquet::SchemaElement, std::allocator<duckdb_parquet::SchemaElement>>::_Vector_impl_data" }
%"struct.std::_Vector_base<duckdb_parquet::SchemaElement, std::allocator<duckdb_parquet::SchemaElement>>::_Vector_impl_data" = type { ptr, ptr, ptr }
%"class.duckdb::vector.347" = type { %"class.std::vector.348" }
%"class.std::vector.348" = type { %"struct.std::_Vector_base.349" }
%"struct.std::_Vector_base.349" = type { %"struct.std::_Vector_base<duckdb_parquet::RowGroup, std::allocator<duckdb_parquet::RowGroup>>::_Vector_impl" }
%"struct.std::_Vector_base<duckdb_parquet::RowGroup, std::allocator<duckdb_parquet::RowGroup>>::_Vector_impl" = type { %"struct.std::_Vector_base<duckdb_parquet::RowGroup, std::allocator<duckdb_parquet::RowGroup>>::_Vector_impl_data" }
%"struct.std::_Vector_base<duckdb_parquet::RowGroup, std::allocator<duckdb_parquet::RowGroup>>::_Vector_impl_data" = type { ptr, ptr, ptr }
%"class.duckdb::vector.353" = type { %"class.std::vector.354" }
%"class.std::vector.354" = type { %"struct.std::_Vector_base.355" }
%"struct.std::_Vector_base.355" = type { %"struct.std::_Vector_base<duckdb_parquet::KeyValue, std::allocator<duckdb_parquet::KeyValue>>::_Vector_impl" }
%"struct.std::_Vector_base<duckdb_parquet::KeyValue, std::allocator<duckdb_parquet::KeyValue>>::_Vector_impl" = type { %"struct.std::_Vector_base<duckdb_parquet::KeyValue, std::allocator<duckdb_parquet::KeyValue>>::_Vector_impl_data" }
%"struct.std::_Vector_base<duckdb_parquet::KeyValue, std::allocator<duckdb_parquet::KeyValue>>::_Vector_impl_data" = type { ptr, ptr, ptr }
%"class.duckdb::vector.359" = type { %"class.std::vector.360" }
%"class.std::vector.360" = type { %"struct.std::_Vector_base.361" }
%"struct.std::_Vector_base.361" = type { %"struct.std::_Vector_base<duckdb_parquet::ColumnOrder, std::allocator<duckdb_parquet::ColumnOrder>>::_Vector_impl" }
%"struct.std::_Vector_base<duckdb_parquet::ColumnOrder, std::allocator<duckdb_parquet::ColumnOrder>>::_Vector_impl" = type { %"struct.std::_Vector_base<duckdb_parquet::ColumnOrder, std::allocator<duckdb_parquet::ColumnOrder>>::_Vector_impl_data" }
%"struct.std::_Vector_base<duckdb_parquet::ColumnOrder, std::allocator<duckdb_parquet::ColumnOrder>>::_Vector_impl_data" = type { ptr, ptr, ptr }
%"class.duckdb_parquet::EncryptionAlgorithm" = type <{ %"class.duckdb_apache::thrift::TBase", %"class.duckdb_parquet::AesGcmV1", %"class.duckdb_parquet::AesGcmCtrV1", %"struct.duckdb_parquet::_EncryptionAlgorithm__isset", [7 x i8] }>
%"class.duckdb_parquet::AesGcmV1" = type <{ %"class.duckdb_apache::thrift::TBase", %"class.std::__cxx11::basic_string", %"class.std::__cxx11::basic_string", i8, %"struct.duckdb_parquet::_AesGcmV1__isset", [6 x i8] }>
%"struct.duckdb_parquet::_AesGcmV1__isset" = type { i8 }
%"class.duckdb_parquet::AesGcmCtrV1" = type <{ %"class.duckdb_apache::thrift::TBase", %"class.std::__cxx11::basic_string", %"class.std::__cxx11::basic_string", i8, %"struct.duckdb_parquet::_AesGcmCtrV1__isset", [6 x i8] }>
%"struct.duckdb_parquet::_AesGcmCtrV1__isset" = type { i8 }
%"struct.duckdb_parquet::_EncryptionAlgorithm__isset" = type { i8 }
%"struct.duckdb_parquet::_FileMetaData__isset" = type { i8 }

; Function Attrs: mustprogress nounwind uwtable
define linkonce_odr noundef nonnull align 8 dereferenceable(8) ptr @_ZNSt10_Head_baseILm0EPKN14duckdb_parquet12FileMetaDataELb0EE7_M_headERKS4_(ptr noundef nonnull align 8 dereferenceable(8) %0) #6 comdat align 2 {
  %2 = alloca ptr, align 8
  store ptr %0, ptr %2, align 8, !tbaa !1454
  %3 = load ptr, ptr %2, align 8, !tbaa !1454
  %4 = getelementptr inbounds nuw %"struct.std::_Head_base.121", ptr %3, i32 0, i32 0
  ret ptr %4
}

; Function Attrs: mustprogress nounwind uwtable
define linkonce_odr noundef nonnull align 8 dereferenceable(8) ptr @_ZNSt11_Tuple_implILm0EJPKN14duckdb_parquet12FileMetaDataESt14default_deleteIS2_EEE7_M_headERKS6_(ptr noundef nonnull align 8 dereferenceable(8) %0) #6 comdat align 2 {
  %2 = alloca ptr, align 8
  store ptr %0, ptr %2, align 8, !tbaa !1450
  %3 = load ptr, ptr %2, align 8, !tbaa !1450
  %4 = call noundef nonnull align 8 dereferenceable(8) ptr @_ZNSt10_Head_baseILm0EPKN14duckdb_parquet12FileMetaDataELb0EE7_M_headERKS4_(ptr noundef nonnull align 8 dereferenceable(8) %3) #3
  ret ptr %4
}

; Function Attrs: mustprogress nounwind uwtable
define linkonce_odr noundef nonnull align 8 dereferenceable(8) ptr @_ZSt12__get_helperILm0EPKN14duckdb_parquet12FileMetaDataEJSt14default_deleteIS2_EEERKT0_RKSt11_Tuple_implIXT_EJS6_DpT1_EE(ptr noundef nonnull align 8 dereferenceable(8) %0) #6 comdat {
  %2 = alloca ptr, align 8
  store ptr %0, ptr %2, align 8, !tbaa !1450
  %3 = load ptr, ptr %2, align 8, !tbaa !1450
  %4 = call noundef nonnull align 8 dereferenceable(8) ptr @_ZNSt11_Tuple_implILm0EJPKN14duckdb_parquet12FileMetaDataESt14default_deleteIS2_EEE7_M_headERKS6_(ptr noundef nonnull align 8 dereferenceable(8) %3) #3
  ret ptr %4
}

; Function Attrs: mustprogress nounwind uwtable
define linkonce_odr noundef nonnull align 8 dereferenceable(8) ptr @_ZSt3getILm0EJPKN14duckdb_parquet12FileMetaDataESt14default_deleteIS2_EEERKNSt13tuple_elementIXT_ESt5tupleIJDpT0_EEE4typeERKSA_(ptr noundef nonnull align 8 dereferenceable(8) %0) #6 comdat {
  %2 = alloca ptr, align 8
  store ptr %0, ptr %2, align 8, !tbaa !1448
  %3 = load ptr, ptr %2, align 8, !tbaa !1448
  %4 = call noundef nonnull align 8 dereferenceable(8) ptr @_ZSt12__get_helperILm0EPKN14duckdb_parquet12FileMetaDataEJSt14default_deleteIS2_EEERKT0_RKSt11_Tuple_implIXT_EJS6_DpT1_EE(ptr noundef nonnull align 8 dereferenceable(8) %3) #3
  ret ptr %4
}

; Function Attrs: mustprogress nounwind uwtable
define linkonce_odr noundef ptr @_ZNKSt15__uniq_ptr_implIKN14duckdb_parquet12FileMetaDataESt14default_deleteIS2_EE6_M_ptrEv(ptr noundef nonnull align 8 dereferenceable(8) %0) #6 comdat align 2 {
  %2 = alloca ptr, align 8
  store ptr %0, ptr %2, align 8, !tbaa !1446
  %3 = load ptr, ptr %2, align 8
  %4 = getelementptr inbounds nuw %"class.std::__uniq_ptr_impl.116", ptr %3, i32 0, i32 0
  %5 = call noundef nonnull align 8 dereferenceable(8) ptr @_ZSt3getILm0EJPKN14duckdb_parquet12FileMetaDataESt14default_deleteIS2_EEERKNSt13tuple_elementIXT_ESt5tupleIJDpT0_EEE4typeERKSA_(ptr noundef nonnull align 8 dereferenceable(8) %4) #3
  %6 = load ptr, ptr %5, align 8, !tbaa !368
  ret ptr %6
}

; Function Attrs: mustprogress nounwind uwtable
define linkonce_odr noundef ptr @_ZNKSt10unique_ptrIKN14duckdb_parquet12FileMetaDataESt14default_deleteIS2_EE3getEv(ptr noundef nonnull align 8 dereferenceable(8) %0) #6 comdat align 2 {
  %2 = alloca ptr, align 8
  store ptr %0, ptr %2, align 8, !tbaa !537
  %3 = load ptr, ptr %2, align 8
  %4 = getelementptr inbounds nuw %"class.std::unique_ptr.114", ptr %3, i32 0, i32 0
  %5 = call noundef ptr @_ZNKSt15__uniq_ptr_implIKN14duckdb_parquet12FileMetaDataESt14default_deleteIS2_EE6_M_ptrEv(ptr noundef nonnull align 8 dereferenceable(8) %4) #3
  ret ptr %5
}

; Function Attrs: mustprogress nounwind uwtable
define linkonce_odr noundef i64 @_ZNKSt6vectorIN14duckdb_parquet8RowGroupESaIS1_EE4sizeEv(ptr noundef nonnull align 8 dereferenceable(24) %0) #6 comdat align 2 {
  %2 = alloca ptr, align 8
  store ptr %0, ptr %2, align 8, !tbaa !545
  %3 = load ptr, ptr %2, align 8
  %4 = getelementptr inbounds nuw %"struct.std::_Vector_base.349", ptr %3, i32 0, i32 0
  %5 = getelementptr inbounds nuw %"struct.std::_Vector_base<duckdb_parquet::RowGroup, std::allocator<duckdb_parquet::RowGroup>>::_Vector_impl_data", ptr %4, i32 0, i32 1
  %6 = load ptr, ptr %5, align 8, !tbaa !547
  %7 = getelementptr inbounds nuw %"struct.std::_Vector_base.349", ptr %3, i32 0, i32 0
  %8 = getelementptr inbounds nuw %"struct.std::_Vector_base<duckdb_parquet::RowGroup, std::allocator<duckdb_parquet::RowGroup>>::_Vector_impl_data", ptr %7, i32 0, i32 0
  %9 = load ptr, ptr %8, align 8, !tbaa !549
  %10 = ptrtoint ptr %6 to i64
  %11 = ptrtoint ptr %9 to i64
  %12 = sub i64 %10, %11
  %13 = sdiv exact i64 %12, 96
  ret i64 %13
}

; Function Attrs: mustprogress uwtable
define noundef ptr @_ZN6duckdb13ParquetReader15GetFileMetadataEv(ptr noundef nonnull align 8 dereferenceable(560) %0) #4 align 2 {
  %2 = alloca ptr, align 8
  store ptr %0, ptr %2, align 8, !tbaa !3
  %3 = load ptr, ptr %2, align 8
  %4 = getelementptr inbounds nuw %"class.duckdb::ParquetReader", ptr %3, i32 0, i32 4
  %5 = call noundef ptr @_ZNK6duckdb10shared_ptrINS_24ParquetFileMetadataCacheELb1EEptEv(ptr noundef nonnull align 8 dereferenceable(16) %4)
  %6 = getelementptr inbounds nuw %"class.duckdb::ParquetFileMetadataCache", ptr %5, i32 0, i32 1
  %7 = call noundef ptr @_ZNKSt10unique_ptrIKN14duckdb_parquet12FileMetaDataESt14default_deleteIS2_EE3getEv(ptr noundef nonnull align 8 dereferenceable(8) %6) #3
  ret ptr %7
}

; Function Attrs: mustprogress uwtable
define noundef i64 @_ZN6duckdb13ParquetReader12NumRowGroupsEv(ptr noundef nonnull align 8 dereferenceable(560) %0) #4 align 2 {
  %2 = alloca ptr, align 8
  store ptr %0, ptr %2, align 8, !tbaa !3
  %3 = load ptr, ptr %2, align 8
  %4 = call noundef ptr @_ZN6duckdb13ParquetReader15GetFileMetadataEv(ptr noundef nonnull align 8 dereferenceable(560) %3)
  %5 = getelementptr inbounds nuw %"class.duckdb_parquet::FileMetaData", ptr %4, i32 0, i32 5
  %6 = call noundef i64 @_ZNKSt6vectorIN14duckdb_parquet8RowGroupESaIS1_EE4sizeEv(ptr noundef nonnull align 8 dereferenceable(24) %5) #3
  ret i64 %6
}