; Function Attrs: mustprogress uwtable
define noundef range(i64 -96076792050570581, 96076792050570582) i64 @_ZN6duckdb13ParquetReader12NumRowGroupsEv(ptr noundef nonnull align 8 dereferenceable(560) %0) local_unnamed_addr #3 align 2 {
  %2 = getelementptr inbounds nuw i8, ptr %0, i64 72
  %3 = tail call noundef ptr @_ZNK6duckdb10shared_ptrINS_24ParquetFileMetadataCacheELb1EEptEv(ptr noundef nonnull align 8 dereferenceable(16) %2)
  %4 = getelementptr inbounds nuw i8, ptr %3, i64 8
  %5 = load ptr, ptr %4, align 8, !tbaa !304
  %6 = getelementptr inbounds nuw i8, ptr %5, i64 48
  %7 = getelementptr inbounds nuw i8, ptr %5, i64 56
  %8 = load ptr, ptr %7, align 8, !tbaa !322
  %9 = load ptr, ptr %6, align 8, !tbaa !325
  %10 = ptrtoint ptr %8 to i64
  %11 = ptrtoint ptr %9 to i64
  %12 = sub i64 %10, %11
  %13 = sdiv exact i64 %12, 96
  ret i64 %13
}